Certificate:
    Data:
        Version: 3 (0x2)
        Serial Number: -227726900 (-0xd92d634)
        Signature Algorithm: md5WithRSAEncryption
        Issuer: C=US, ST=Unknown, L=Unknown, O=Unknown, OU=Unknown, CN=hathor.lunarpages.com/emailAddress=ssl@hathor.lunarpages.com
        Validity
            Not Before: Aug 18 09:52:14 2007 GMT
            Not After : Aug 17 09:52:14 2008 GMT
        Subject: C=US, ST=Unknown, L=Unknown, O=Unknown, OU=Unknown, CN=hathor.lunarpages.com/emailAddress=ssl@hathor.lunarpages.com
        Subject Public Key Info:
            Public Key Algorithm: rsaEncryption
            RSA Public Key: (1024 bit)
                Modulus (1024 bit):
                    00:ce:e0:dd:ee:ed:6c:5d:54:3b:b3:51:c6:ea:f2:
                    64:22:4e:6d:06:dc:44:bd:4f:58:f8:2e:67:1b:7b:
                    92:e8:c6:ec:7d:89:bd:d4:e9:5c:92:b0:2c:af:35:
                    12:c0:4d:df:2a:2c:f8:8e:f5:72:61:7c:f3:ed:2b:
                    b2:6f:de:43:a6:03:8c:f4:9f:3e:76:af:fd:03:94:
                    e6:8d:3c:3e:3f:c6:7a:a7:f4:bc:5e:20:2e:09:92:
                    9f:93:af:57:bf:d4:58:4c:d9:4c:f9:e2:20:1a:81:
                    24:85:81:57:86:76:5f:c6:e1:dd:a4:d1:6c:a8:5d:
                    ff:f1:8b:52:bf:29:bb:c4:df
                Exponent: 65537 (0x10001)
        X509v3 extensions:
            X509v3 Subject Key Identifier: 
                94:D5:B2:1A:46:C2:42:DC:DE:88:59:75:67:76:0B:17:A3:44:D2:65
            X509v3 Authority Key Identifier: 
                keyid:94:D5:B2:1A:46:C2:42:DC:DE:88:59:75:67:76:0B:17:A3:44:D2:65
                DirName:/C=US/ST=Unknown/L=Unknown/O=Unknown/OU=Unknown/CN=hathor.lunarpages.com/emailAddress=ssl@hathor.lunarpages.com
                serial:F2:6D:29:CC

            X509v3 Basic Constraints: 
                CA:TRUE
    Signature Algorithm: md5WithRSAEncryption
        b2:aa:f7:6b:16:e4:1b:b7:0e:bb:a2:0b:1b:92:d7:bc:46:73:
        3f:25:e6:c8:ca:68:ab:b0:b6:32:b2:c8:71:c6:1a:b7:50:c6:
        d3:b5:ea:9c:fd:b1:25:d4:1c:e4:39:92:d9:9f:3b:55:cc:8b:
        59:cf:39:4a:ab:65:91:61:37:31:63:d3:00:30:3f:e0:68:a6:
        0b:28:a4:b4:ea:9b:d8:2a:51:fb:b3:36:1f:c0:c6:7c:df:a3:
        17:48:58:5d:ba:aa:e2:a5:d1:df:69:2d:6e:d5:85:8c:23:b8:
        5a:37:4c:9d:ff:03:37:72:14:24:d1:1e:a6:e9:8c:72:55:cc:
        93:1a
-----BEGIN CERTIFICATE-----
MIIDwDCCAymgAwIBAgIFAPJtKcwwDQYJKoZIhvcNAQEEBQAwgZ8xCzAJBgNVBAYT
AlVTMRAwDgYDVQQIEwdVbmtub3duMRAwDgYDVQQHEwdVbmtub3duMRAwDgYDVQQK
EwdVbmtub3duMRAwDgYDVQQLEwdVbmtub3duMR4wHAYDVQQDExVoYXRob3IubHVu
YXJwYWdlcy5jb20xKDAmBgkqhkiG9w0BCQEWGXNzbEBoYXRob3IubHVuYXJwYWdl
cy5jb20wHhcNMDcwODE4MDk1MjE0WhcNMDgwODE3MDk1MjE0WjCBnzELMAkGA1UE
BhMCVVMxEDAOBgNVBAgTB1Vua25vd24xEDAOBgNVBAcTB1Vua25vd24xEDAOBgNV
BAoTB1Vua25vd24xEDAOBgNVBAsTB1Vua25vd24xHjAcBgNVBAMTFWhhdGhvci5s
dW5hcnBhZ2VzLmNvbTEoMCYGCSqGSIb3DQEJARYZc3NsQGhhdGhvci5sdW5hcnBh
Z2VzLmNvbTCBnzANBgkqhkiG9w0BAQEFAAOBjQAwgYkCgYEAzuDd7u1sXVQ7s1HG
6vJkIk5tBtxEvU9Y+C5nG3uS6MbsfYm91OlckrAsrzUSwE3fKiz4jvVyYXzz7Suy
b95DpgOM9J8+dq/9A5TmjTw+P8Z6p/S8XiAuCZKfk69Xv9RYTNlM+eIgGoEkhYFX
hnZfxuHdpNFsqF3/8YtSvym7xN8CAwEAAaOCAQQwggEAMB0GA1UdDgQWBBSU1bIa
RsJC3N6IWXVndgsXo0TSZTCB0AYDVR0jBIHIMIHFgBSU1bIaRsJC3N6IWXVndgsX
o0TSZaGBpaSBojCBnzELMAkGA1UEBhMCVVMxEDAOBgNVBAgTB1Vua25vd24xEDAO
BgNVBAcTB1Vua25vd24xEDAOBgNVBAoTB1Vua25vd24xEDAOBgNVBAsTB1Vua25v
d24xHjAcBgNVBAMTFWhhdGhvci5sdW5hcnBhZ2VzLmNvbTEoMCYGCSqGSIb3DQEJ
ARYZc3NsQGhhdGhvci5sdW5hcnBhZ2VzLmNvbYIFAPJtKcwwDAYDVR0TBAUwAwEB
/zANBgkqhkiG9w0BAQQFAAOBgQCyqvdrFuQbtw67ogsbkte8RnM/JebIymirsLYy
sshxxhq3UMbTteqc/bEl1BzkOZLZnztVzItZzzlKq2WRYTcxY9MAMD/gaKYLKKS0
6pvYKlH7szYfwMZ836MXSFhduqripdHfaS1u1YWMI7haN0yd/wM3chQk0R6m6Yxy
VcyTGg==
-----END CERTIFICATE-----
